target datalayout = "e-m:e-p270:32:32-p271:32:32-p272:64:64-i64:64-i128:128-f80:128-n8:16:32:64-S128"
target triple = "x86_64-pc-linux-gnu"

%struct.PLpgSQL_expr = type { ptr, i32, ptr, ptr, i32, i8, ptr, ptr, ptr, i32, i32, i8, i32, ptr, ptr, ptr, i32, ptr, i8, i32 }
%struct.StringInfoData = type { ptr, i32, i32, i32 }
%struct.sql_error_callback_arg = type { i32, ptr }
%struct.ErrorContextCallback = type { ptr, ptr, ptr }

@plpgsql_curr_compile = external global ptr, align 8
@.str.2 = private unnamed_addr constant [11 x i8] c"plpgsql-18\00", align 1
@.str.4 = private unnamed_addr constant [10 x i8] c"pl_gram.y\00", align 1
@plpgsql_IdentifierLookup = external global i32, align 4
@.str.81 = private unnamed_addr constant [23 x i8] c"mismatched parentheses\00", align 1
@.str.82 = private unnamed_addr constant [38 x i8] c"missing \22%s\22 at end of SQL expression\00", align 1
@__func__.read_sql_construct = private unnamed_addr constant [19 x i8] c"read_sql_construct\00", align 1
@.str.83 = private unnamed_addr constant [37 x i8] c"missing \22%s\22 at end of SQL statement\00", align 1
@.str.84 = private unnamed_addr constant [19 x i8] c"missing expression\00", align 1
@.str.85 = private unnamed_addr constant [22 x i8] c"missing SQL statement\00", align 1
@error_context_stack = external global ptr, align 8
@plpgsql_check_syntax = external global i8, align 1
@plpgsql_compile_tmp_cxt = external global ptr, align 8
@CurrentMemoryContext = external global ptr, align 8

; Function Attrs: inlinehint nounwind uwtable
define internal ptr @MemoryContextSwitchTo(ptr noundef %0) #6 {
  %2 = alloca ptr, align 8
  %3 = alloca ptr, align 8
  store ptr %0, ptr %2, align 8
  call void @llvm.lifetime.start.p0(i64 8, ptr %3) #10
  %4 = load ptr, ptr @CurrentMemoryContext, align 8
  store ptr %4, ptr %3, align 8
  %5 = load ptr, ptr %2, align 8
  store ptr %5, ptr @CurrentMemoryContext, align 8
  %6 = load ptr, ptr %3, align 8
  call void @llvm.lifetime.end.p0(i64 8, ptr %3) #10
  ret ptr %6
}

; Function Attrs: nounwind uwtable
define internal void @check_sql_expr(ptr noundef %0, i32 noundef %1, i32 noundef %2, ptr noundef %3) #0 {
  %5 = alloca ptr, align 8
  %6 = alloca i32, align 4
  %7 = alloca i32, align 4
  %8 = alloca ptr, align 8
  %9 = alloca %struct.sql_error_callback_arg, align 8
  %10 = alloca %struct.ErrorContextCallback, align 8
  %11 = alloca ptr, align 8
  %12 = alloca i32, align 4
  store ptr %0, ptr %5, align 8
  store i32 %1, ptr %6, align 4
  store i32 %2, ptr %7, align 4
  store ptr %3, ptr %8, align 8
  call void @llvm.lifetime.start.p0(i64 16, ptr %9) #10
  call void @llvm.lifetime.start.p0(i64 24, ptr %10) #10
  call void @llvm.lifetime.start.p0(i64 8, ptr %11) #10
  %13 = load i8, ptr @plpgsql_check_syntax, align 1, !range !3, !noundef !4
  %14 = trunc i8 %13 to i1
  br i1 %14, label %16, label %15

15:                                               ; preds = %4
  store i32 1, ptr %12, align 4
  br label %34

16:                                               ; preds = %4
  %17 = load i32, ptr %7, align 4
  %18 = getelementptr inbounds nuw %struct.sql_error_callback_arg, ptr %9, i32 0, i32 0
  store i32 %17, ptr %18, align 8
  %19 = load ptr, ptr %8, align 8
  %20 = getelementptr inbounds nuw %struct.sql_error_callback_arg, ptr %9, i32 0, i32 1
  store ptr %19, ptr %20, align 8
  %21 = getelementptr inbounds nuw %struct.ErrorContextCallback, ptr %10, i32 0, i32 1
  store ptr @plpgsql_sql_error_callback, ptr %21, align 8
  %22 = getelementptr inbounds nuw %struct.ErrorContextCallback, ptr %10, i32 0, i32 2
  store ptr %9, ptr %22, align 8
  %23 = load ptr, ptr @error_context_stack, align 8
  %24 = getelementptr inbounds nuw %struct.ErrorContextCallback, ptr %10, i32 0, i32 0
  store ptr %23, ptr %24, align 8
  store ptr %10, ptr @error_context_stack, align 8
  %25 = load ptr, ptr @plpgsql_compile_tmp_cxt, align 8
  %26 = call ptr @MemoryContextSwitchTo(ptr noundef %25)
  store ptr %26, ptr %11, align 8
  %27 = load ptr, ptr %5, align 8
  %28 = load i32, ptr %6, align 4
  %29 = call ptr @raw_parser(ptr noundef %27, i32 noundef %28)
  %30 = load ptr, ptr %11, align 8
  %31 = call ptr @MemoryContextSwitchTo(ptr noundef %30)
  %32 = getelementptr inbounds nuw %struct.ErrorContextCallback, ptr %10, i32 0, i32 0
  %33 = load ptr, ptr %32, align 8
  store ptr %33, ptr @error_context_stack, align 8
  store i32 0, ptr %12, align 4
  br label %34

34:                                               ; preds = %16, %15
  call void @llvm.lifetime.end.p0(i64 8, ptr %11) #10
  call void @llvm.lifetime.end.p0(i64 24, ptr %10) #10
  call void @llvm.lifetime.end.p0(i64 16, ptr %9) #10
  %35 = load i32, ptr %12, align 4
  switch i32 %35, label %37 [
    i32 0, label %36
    i32 1, label %36
  ]

36:                                               ; preds = %34, %34
  ret void

37:                                               ; preds = %34
  unreachable
}

; Function Attrs: nounwind uwtable
define internal ptr @make_plpgsql_expr(ptr noundef %0, i32 noundef %1) #0 {
  %3 = alloca ptr, align 8
  %4 = alloca i32, align 4
  %5 = alloca ptr, align 8
  store ptr %0, ptr %3, align 8
  store i32 %1, ptr %4, align 4
  call void @llvm.lifetime.start.p0(i64 8, ptr %5) #10
  %6 = call ptr @palloc0(i64 noundef 128)
  store ptr %6, ptr %5, align 8
  %7 = load ptr, ptr %3, align 8
  %8 = call ptr @pstrdup(ptr noundef %7)
  %9 = load ptr, ptr %5, align 8
  %10 = getelementptr inbounds nuw %struct.PLpgSQL_expr, ptr %9, i32 0, i32 0
  store ptr %8, ptr %10, align 8
  %11 = load i32, ptr %4, align 4
  %12 = load ptr, ptr %5, align 8
  %13 = getelementptr inbounds nuw %struct.PLpgSQL_expr, ptr %12, i32 0, i32 1
  store i32 %11, ptr %13, align 8
  %14 = load ptr, ptr @plpgsql_curr_compile, align 8
  %15 = load ptr, ptr %5, align 8
  %16 = getelementptr inbounds nuw %struct.PLpgSQL_expr, ptr %15, i32 0, i32 2
  store ptr %14, ptr %16, align 8
  %17 = call ptr @plpgsql_ns_top()
  %18 = load ptr, ptr %5, align 8
  %19 = getelementptr inbounds nuw %struct.PLpgSQL_expr, ptr %18, i32 0, i32 3
  store ptr %17, ptr %19, align 8
  %20 = load ptr, ptr %5, align 8
  %21 = getelementptr inbounds nuw %struct.PLpgSQL_expr, ptr %20, i32 0, i32 4
  store i32 -1, ptr %21, align 8
  %22 = load ptr, ptr %5, align 8
  %23 = getelementptr inbounds nuw %struct.PLpgSQL_expr, ptr %22, i32 0, i32 5
  store i8 0, ptr %23, align 4
  %24 = load ptr, ptr %5, align 8
  call void @llvm.lifetime.end.p0(i64 8, ptr %5) #10
  ret ptr %24
}

; Function Attrs: nounwind uwtable
define internal ptr @read_sql_construct(i32 noundef %0, i32 noundef %1, i32 noundef %2, ptr noundef %3, i32 noundef %4, i1 noundef zeroext %5, i1 noundef zeroext %6, ptr noundef %7, ptr noundef %8, ptr noundef %9, ptr noundef %10, ptr noundef %11) #0 {
  %13 = alloca i32, align 4
  %14 = alloca i32, align 4
  %15 = alloca i32, align 4
  %16 = alloca ptr, align 8
  %17 = alloca i32, align 4
  %18 = alloca i8, align 1
  %19 = alloca i8, align 1
  %20 = alloca ptr, align 8
  %21 = alloca ptr, align 8
  %22 = alloca ptr, align 8
  %23 = alloca ptr, align 8
  %24 = alloca ptr, align 8
  %25 = alloca i32, align 4
  %26 = alloca %struct.StringInfoData, align 8
  %27 = alloca i32, align 4
  %28 = alloca i32, align 4
  %29 = alloca i32, align 4
  %30 = alloca i32, align 4
  %31 = alloca ptr, align 8
  store i32 %0, ptr %13, align 4
  store i32 %1, ptr %14, align 4
  store i32 %2, ptr %15, align 4
  store ptr %3, ptr %16, align 8
  store i32 %4, ptr %17, align 4
  %32 = zext i1 %5 to i8
  store i8 %32, ptr %18, align 1
  %33 = zext i1 %6 to i8
  store i8 %33, ptr %19, align 1
  store ptr %7, ptr %20, align 8
  store ptr %8, ptr %21, align 8
  store ptr %9, ptr %22, align 8
  store ptr %10, ptr %23, align 8
  store ptr %11, ptr %24, align 8
  call void @llvm.lifetime.start.p0(i64 4, ptr %25) #10
  call void @llvm.lifetime.start.p0(i64 24, ptr %26) #10
  call void @llvm.lifetime.start.p0(i64 4, ptr %27) #10
  call void @llvm.lifetime.start.p0(i64 4, ptr %28) #10
  store i32 -1, ptr %28, align 4
  call void @llvm.lifetime.start.p0(i64 4, ptr %29) #10
  store i32 -1, ptr %29, align 4
  call void @llvm.lifetime.start.p0(i64 4, ptr %30) #10
  store i32 0, ptr %30, align 4
  call void @llvm.lifetime.start.p0(i64 8, ptr %31) #10
  call void @initStringInfo(ptr noundef %26)
  %34 = load i32, ptr @plpgsql_IdentifierLookup, align 4
  store i32 %34, ptr %27, align 4
  store i32 2, ptr @plpgsql_IdentifierLookup, align 4
  br label %35

35:                                               ; preds = %144, %12
  %36 = load ptr, ptr %22, align 8
  %37 = load ptr, ptr %23, align 8
  %38 = load ptr, ptr %24, align 8
  %39 = call i32 @plpgsql_yylex(ptr noundef %36, ptr noundef %37, ptr noundef %38)
  store i32 %39, ptr %25, align 4
  %40 = load i32, ptr %28, align 4
  %41 = icmp slt i32 %40, 0
  br i1 %41, label %42, label %45

42:                                               ; preds = %35
  %43 = load ptr, ptr %23, align 8
  %44 = load i32, ptr %43, align 4
  store i32 %44, ptr %28, align 4
  br label %45

45:                                               ; preds = %42, %35
  %46 = load i32, ptr %25, align 4
  %47 = load i32, ptr %13, align 4
  %48 = icmp eq i32 %46, %47
  br i1 %48, label %49, label %53

49:                                               ; preds = %45
  %50 = load i32, ptr %30, align 4
  %51 = icmp eq i32 %50, 0
  br i1 %51, label %52, label %53

52:                                               ; preds = %49
  br label %150

53:                                               ; preds = %49, %45
  %54 = load i32, ptr %25, align 4
  %55 = load i32, ptr %14, align 4
  %56 = icmp eq i32 %54, %55
  br i1 %56, label %57, label %61

57:                                               ; preds = %53
  %58 = load i32, ptr %30, align 4
  %59 = icmp eq i32 %58, 0
  br i1 %59, label %60, label %61

60:                                               ; preds = %57
  br label %150

61:                                               ; preds = %57, %53
  %62 = load i32, ptr %25, align 4
  %63 = load i32, ptr %15, align 4
  %64 = icmp eq i32 %62, %63
  br i1 %64, label %65, label %69

65:                                               ; preds = %61
  %66 = load i32, ptr %30, align 4
  %67 = icmp eq i32 %66, 0
  br i1 %67, label %68, label %69

68:                                               ; preds = %65
  br label %150

69:                                               ; preds = %65, %61
  %70 = load i32, ptr %25, align 4
  %71 = icmp eq i32 %70, 40
  br i1 %71, label %75, label %72

72:                                               ; preds = %69
  %73 = load i32, ptr %25, align 4
  %74 = icmp eq i32 %73, 91
  br i1 %74, label %75, label %78

75:                                               ; preds = %72, %69
  %76 = load i32, ptr %30, align 4
  %77 = add i32 %76, 1
  store i32 %77, ptr %30, align 4
  br label %94

78:                                               ; preds = %72
  %79 = load i32, ptr %25, align 4
  %80 = icmp eq i32 %79, 41
  br i1 %80, label %84, label %81

81:                                               ; preds = %78
  %82 = load i32, ptr %25, align 4
  %83 = icmp eq i32 %82, 93
  br i1 %83, label %84, label %93

84:                                               ; preds = %81, %78
  %85 = load i32, ptr %30, align 4
  %86 = add i32 %85, -1
  store i32 %86, ptr %30, align 4
  %87 = load i32, ptr %30, align 4
  %88 = icmp slt i32 %87, 0
  br i1 %88, label %89, label %92

89:                                               ; preds = %84
  %90 = load ptr, ptr %23, align 8
  %91 = load ptr, ptr %24, align 8
  call void @plpgsql_yyerror(ptr noundef %90, ptr noundef null, ptr noundef %91, ptr noundef @.str.81) #13
  unreachable

92:                                               ; preds = %84
  br label %93

93:                                               ; preds = %92, %81
  br label %94

94:                                               ; preds = %93, %75
  %95 = load i32, ptr %25, align 4
  %96 = icmp eq i32 %95, 0
  br i1 %96, label %100, label %97

97:                                               ; preds = %94
  %98 = load i32, ptr %25, align 4
  %99 = icmp eq i32 %98, 59
  br i1 %99, label %100, label %144

100:                                              ; preds = %97, %94
  %101 = load i32, ptr %30, align 4
  %102 = icmp ne i32 %101, 0
  br i1 %102, label %103, label %106

103:                                              ; preds = %100
  %104 = load ptr, ptr %23, align 8
  %105 = load ptr, ptr %24, align 8
  call void @plpgsql_yyerror(ptr noundef %104, ptr noundef null, ptr noundef %105, ptr noundef @.str.81) #13
  unreachable

106:                                              ; preds = %100
  %107 = load i8, ptr %18, align 1, !range !3, !noundef !4
  %108 = trunc i8 %107 to i1
  br i1 %108, label %109, label %126

109:                                              ; preds = %106
  br label %110

110:                                              ; preds = %109
  br i1 true, label %111, label %113

111:                                              ; preds = %110
  %112 = call zeroext i1 @errstart_cold(i32 noundef 21, ptr noundef @.str.2) #12
  br i1 %112, label %115, label %123

113:                                              ; preds = %110
  %114 = call zeroext i1 @errstart(i32 noundef 21, ptr noundef @.str.2)
  br i1 %114, label %115, label %123

115:                                              ; preds = %113, %111
  %116 = call i32 @errcode(i32 noundef 16801924)
  %117 = load ptr, ptr %16, align 8
  %118 = call i32 (ptr, ...) @errmsg(ptr noundef @.str.82, ptr noundef %117)
  %119 = load ptr, ptr %23, align 8
  %120 = load i32, ptr %119, align 4
  %121 = load ptr, ptr %24, align 8
  %122 = call i32 @plpgsql_scanner_errposition(i32 noundef %120, ptr noundef %121)
  call void @errfinish(ptr noundef @.str.4, i32 noundef 2816, ptr noundef @__func__.read_sql_construct)
  br label %123

123:                                              ; preds = %115, %113, %111
  unreachable

124:                                              ; No predecessors!
  br label %125

125:                                              ; preds = %124
  br label %143

126:                                              ; preds = %106
  br label %127

127:                                              ; preds = %126
  br i1 true, label %128, label %130

128:                                              ; preds = %127
  %129 = call zeroext i1 @errstart_cold(i32 noundef 21, ptr noundef @.str.2) #12
  br i1 %129, label %132, label %140

130:                                              ; preds = %127
  %131 = call zeroext i1 @errstart(i32 noundef 21, ptr noundef @.str.2)
  br i1 %131, label %132, label %140

132:                                              ; preds = %130, %128
  %133 = call i32 @errcode(i32 noundef 16801924)
  %134 = load ptr, ptr %16, align 8
  %135 = call i32 (ptr, ...) @errmsg(ptr noundef @.str.83, ptr noundef %134)
  %136 = load ptr, ptr %23, align 8
  %137 = load i32, ptr %136, align 4
  %138 = load ptr, ptr %24, align 8
  %139 = call i32 @plpgsql_scanner_errposition(i32 noundef %137, ptr noundef %138)
  call void @errfinish(ptr noundef @.str.4, i32 noundef 2822, ptr noundef @__func__.read_sql_construct)
  br label %140

140:                                              ; preds = %132, %130, %128
  unreachable

141:                                              ; No predecessors!
  br label %142

142:                                              ; preds = %141
  br label %143

143:                                              ; preds = %142, %125
  br label %144

144:                                              ; preds = %143, %97
  %145 = load ptr, ptr %23, align 8
  %146 = load i32, ptr %145, align 4
  %147 = load ptr, ptr %24, align 8
  %148 = call i32 @plpgsql_token_length(ptr noundef %147)
  %149 = add i32 %146, %148
  store i32 %149, ptr %29, align 4
  br label %35

150:                                              ; preds = %68, %60, %52
  %151 = load i32, ptr %27, align 4
  store i32 %151, ptr @plpgsql_IdentifierLookup, align 4
  %152 = load ptr, ptr %20, align 8
  %153 = icmp ne ptr %152, null
  br i1 %153, label %154, label %157

154:                                              ; preds = %150
  %155 = load i32, ptr %28, align 4
  %156 = load ptr, ptr %20, align 8
  store i32 %155, ptr %156, align 4
  br label %157

157:                                              ; preds = %154, %150
  %158 = load ptr, ptr %21, align 8
  %159 = icmp ne ptr %158, null
  br i1 %159, label %160, label %163

160:                                              ; preds = %157
  %161 = load i32, ptr %25, align 4
  %162 = load ptr, ptr %21, align 8
  store i32 %161, ptr %162, align 4
  br label %163

163:                                              ; preds = %160, %157
  %164 = load i32, ptr %28, align 4
  %165 = load i32, ptr %29, align 4
  %166 = icmp sge i32 %164, %165
  br i1 %166, label %167, label %176

167:                                              ; preds = %163
  %168 = load i8, ptr %18, align 1, !range !3, !noundef !4
  %169 = trunc i8 %168 to i1
  br i1 %169, label %170, label %173

170:                                              ; preds = %167
  %171 = load ptr, ptr %23, align 8
  %172 = load ptr, ptr %24, align 8
  call void @plpgsql_yyerror(ptr noundef %171, ptr noundef null, ptr noundef %172, ptr noundef @.str.84) #13
  unreachable

173:                                              ; preds = %167
  %174 = load ptr, ptr %23, align 8
  %175 = load ptr, ptr %24, align 8
  call void @plpgsql_yyerror(ptr noundef %174, ptr noundef null, ptr noundef %175, ptr noundef @.str.85) #13
  unreachable

176:                                              ; preds = %163
  %177 = load i32, ptr %28, align 4
  %178 = load i32, ptr %29, align 4
  %179 = load ptr, ptr %24, align 8
  call void @plpgsql_append_source_text(ptr noundef %26, i32 noundef %177, i32 noundef %178, ptr noundef %179)
  %180 = getelementptr inbounds nuw %struct.StringInfoData, ptr %26, i32 0, i32 0
  %181 = load ptr, ptr %180, align 8
  %182 = load i32, ptr %17, align 4
  %183 = call ptr @make_plpgsql_expr(ptr noundef %181, i32 noundef %182)
  store ptr %183, ptr %31, align 8
  %184 = getelementptr inbounds nuw %struct.StringInfoData, ptr %26, i32 0, i32 0
  %185 = load ptr, ptr %184, align 8
  call void @pfree(ptr noundef %185)
  %186 = load i8, ptr %19, align 1, !range !3, !noundef !4
  %187 = trunc i8 %186 to i1
  br i1 %187, label %188, label %197

188:                                              ; preds = %176
  %189 = load ptr, ptr %31, align 8
  %190 = getelementptr inbounds nuw %struct.PLpgSQL_expr, ptr %189, i32 0, i32 0
  %191 = load ptr, ptr %190, align 8
  %192 = load ptr, ptr %31, align 8
  %193 = getelementptr inbounds nuw %struct.PLpgSQL_expr, ptr %192, i32 0, i32 1
  %194 = load i32, ptr %193, align 8
  %195 = load i32, ptr %28, align 4
  %196 = load ptr, ptr %24, align 8
  call void @check_sql_expr(ptr noundef %191, i32 noundef %194, i32 noundef %195, ptr noundef %196)
  br label %197

197:                                              ; preds = %188, %176
  %198 = load ptr, ptr %31, align 8
  call void @llvm.lifetime.end.p0(i64 8, ptr %31) #10
  call void @llvm.lifetime.end.p0(i64 4, ptr %30) #10
  call void @llvm.lifetime.end.p0(i64 4, ptr %29) #10
  call void @llvm.lifetime.end.p0(i64 4, ptr %28) #10
  call void @llvm.lifetime.end.p0(i64 4, ptr %27) #10
  call void @llvm.lifetime.end.p0(i64 24, ptr %26) #10
  call void @llvm.lifetime.end.p0(i64 4, ptr %25) #10
  ret ptr %198
}