; Function Attrs: nounwind uwtable
define internal fastcc ptr @read_sql_construct(i32 noundef range(i32 44, 385) %0, i32 noundef range(i32 0, 382) %1, i32 noundef range(i32 0, 382) %2, ptr noundef %3, i32 noundef range(i32 0, 6) %4, i1 noundef zeroext %5, i1 noundef zeroext %6, ptr noundef writeonly captures(address_is_null) %7, ptr noundef writeonly captures(address_is_null) %8, ptr noundef nonnull %9, ptr noundef nonnull %10, ptr noundef %11) unnamed_addr #0 {
  %13 = alloca %struct.sql_error_callback_arg, align 8
  %14 = alloca %struct.ErrorContextCallback, align 8
  %15 = alloca %struct.StringInfoData, align 8
  call void @llvm.lifetime.start.p0(i64 24, ptr nonnull %15) #12
  call void @initStringInfo(ptr noundef nonnull %15) #12
  %16 = load i32, ptr @plpgsql_IdentifierLookup, align 4
  store i32 2, ptr @plpgsql_IdentifierLookup, align 4
  br label %17

17:                                               ; preds = %50, %12
  %.073 = phi i32 [ -1, %12 ], [ %53, %50 ]
  %.071 = phi i32 [ 0, %12 ], [ %.172, %50 ]
  %.0 = phi i32 [ -1, %12 ], [ %.1, %50 ]
  %18 = call i32 @plpgsql_yylex(ptr noundef nonnull %9, ptr noundef nonnull %10, ptr noundef %11) #12
  %19 = icmp slt i32 %.0, 0
  br i1 %19, label %20, label %22

20:                                               ; preds = %17
  %21 = load i32, ptr %10, align 4
  br label %22

22:                                               ; preds = %20, %17
  %.1 = phi i32 [ %21, %20 ], [ %.0, %17 ]
  %23 = icmp eq i32 %18, %0
  %24 = icmp eq i32 %.071, 0
  %25 = icmp eq i32 %18, %1
  %26 = or i1 %23, %25
  %27 = icmp eq i32 %18, %2
  %28 = or i1 %27, %26
  %or.cond82 = select i1 %28, i1 %24, i1 false
  br i1 %or.cond82, label %54, label %29

29:                                               ; preds = %22
  switch i32 %18, label %36 [
    i32 91, label %30
    i32 40, label %30
    i32 93, label %32
    i32 41, label %32
  ]

30:                                               ; preds = %29, %29
  %31 = add i32 %.071, 1
  br label %36

32:                                               ; preds = %29, %29
  %33 = add i32 %.071, -1
  %34 = icmp slt i32 %33, 0
  br i1 %34, label %35, label %36

35:                                               ; preds = %32
  call void @plpgsql_yyerror(ptr noundef nonnull %10, ptr noundef null, ptr noundef %11, ptr noundef nonnull @.str.81) #15
  unreachable

36:                                               ; preds = %29, %32, %30
  %.172 = phi i32 [ %31, %30 ], [ %33, %32 ], [ %.071, %29 ]
  switch i32 %18, label %50 [
    i32 59, label %37
    i32 0, label %37
  ]

37:                                               ; preds = %36, %36
  %.not = icmp eq i32 %.172, 0
  br i1 %.not, label %39, label %38

38:                                               ; preds = %37
  call void @plpgsql_yyerror(ptr noundef nonnull %10, ptr noundef null, ptr noundef %11, ptr noundef nonnull @.str.81) #15
  unreachable

39:                                               ; preds = %37
  %40 = call zeroext i1 @errstart_cold(i32 noundef 21, ptr noundef nonnull @.str.2) #14
  call void @llvm.assume(i1 %40)
  %41 = call i32 @errcode(i32 noundef 16801924) #12
  br i1 %5, label %42, label %46

42:                                               ; preds = %39
  %43 = call i32 (ptr, ...) @errmsg(ptr noundef nonnull @.str.82, ptr noundef %3) #12
  %44 = load i32, ptr %10, align 4
  %45 = call i32 @plpgsql_scanner_errposition(i32 noundef %44, ptr noundef %11) #12
  call void @errfinish(ptr noundef nonnull @.str.4, i32 noundef 2816, ptr noundef nonnull @__func__.read_sql_construct) #12
  unreachable

46:                                               ; preds = %39
  %47 = call i32 (ptr, ...) @errmsg(ptr noundef nonnull @.str.83, ptr noundef %3) #12
  %48 = load i32, ptr %10, align 4
  %49 = call i32 @plpgsql_scanner_errposition(i32 noundef %48, ptr noundef %11) #12
  call void @errfinish(ptr noundef nonnull @.str.4, i32 noundef 2822, ptr noundef nonnull @__func__.read_sql_construct) #12
  unreachable

50:                                               ; preds = %36
  %51 = load i32, ptr %10, align 4
  %52 = call i32 @plpgsql_token_length(ptr noundef %11) #12
  %53 = add i32 %52, %51
  br label %17

54:                                               ; preds = %22
  store i32 %16, ptr @plpgsql_IdentifierLookup, align 4
  %.not78 = icmp eq ptr %7, null
  br i1 %.not78, label %56, label %55

55:                                               ; preds = %54
  store i32 %.1, ptr %7, align 4
  br label %56

56:                                               ; preds = %55, %54
  %.not79 = icmp eq ptr %8, null
  br i1 %.not79, label %58, label %57

57:                                               ; preds = %56
  store i32 %18, ptr %8, align 4
  br label %58

58:                                               ; preds = %57, %56
  %.not80 = icmp slt i32 %.1, %.073
  br i1 %.not80, label %62, label %59

59:                                               ; preds = %58
  br i1 %5, label %60, label %61

60:                                               ; preds = %59
  call void @plpgsql_yyerror(ptr noundef nonnull %10, ptr noundef null, ptr noundef %11, ptr noundef nonnull @.str.84) #15
  unreachable

61:                                               ; preds = %59
  call void @plpgsql_yyerror(ptr noundef nonnull %10, ptr noundef null, ptr noundef %11, ptr noundef nonnull @.str.85) #15
  unreachable

62:                                               ; preds = %58
  call void @plpgsql_append_source_text(ptr noundef nonnull %15, i32 noundef %.1, i32 noundef %.073, ptr noundef %11) #12
  %63 = load ptr, ptr %15, align 8
  %64 = call ptr @palloc0(i64 noundef 128) #12
  %65 = call ptr @pstrdup(ptr noundef %63) #12
  store ptr %65, ptr %64, align 8
  %66 = getelementptr inbounds nuw i8, ptr %64, i64 8
  store i32 %4, ptr %66, align 8
  %67 = load ptr, ptr @plpgsql_curr_compile, align 8
  %68 = getelementptr inbounds nuw i8, ptr %64, i64 16
  store ptr %67, ptr %68, align 8
  %69 = call ptr @plpgsql_ns_top() #12
  %70 = getelementptr inbounds nuw i8, ptr %64, i64 24
  store ptr %69, ptr %70, align 8
  %71 = getelementptr inbounds nuw i8, ptr %64, i64 32
  store i32 -1, ptr %71, align 8
  %72 = getelementptr inbounds nuw i8, ptr %64, i64 36
  store i8 0, ptr %72, align 4
  %73 = load ptr, ptr %15, align 8
  call void @pfree(ptr noundef %73) #12
  br i1 %6, label %74, label %88

74:                                               ; preds = %62
  %75 = load ptr, ptr %64, align 8
  %76 = load i32, ptr %66, align 8
  call void @llvm.lifetime.start.p0(i64 16, ptr nonnull %13) #12
  call void @llvm.lifetime.start.p0(i64 24, ptr nonnull %14) #12
  %77 = load i8, ptr @plpgsql_check_syntax, align 1, !range !3, !noundef !4
  %78 = trunc nuw i8 %77 to i1
  br i1 %78, label %79, label %check_sql_expr.exit

79:                                               ; preds = %74
  store i32 %.1, ptr %13, align 8
  %80 = getelementptr inbounds nuw i8, ptr %13, i64 8
  store ptr %11, ptr %80, align 8
  %81 = getelementptr inbounds nuw i8, ptr %14, i64 8
  store ptr @plpgsql_sql_error_callback, ptr %81, align 8
  %82 = getelementptr inbounds nuw i8, ptr %14, i64 16
  store ptr %13, ptr %82, align 8
  %83 = load ptr, ptr @error_context_stack, align 8
  store ptr %83, ptr %14, align 8
  store ptr %14, ptr @error_context_stack, align 8
  %84 = load ptr, ptr @plpgsql_compile_tmp_cxt, align 8
  %85 = load ptr, ptr @CurrentMemoryContext, align 8
  store ptr %84, ptr @CurrentMemoryContext, align 8
  %86 = call ptr @raw_parser(ptr noundef %75, i32 noundef %76) #12
  store ptr %85, ptr @CurrentMemoryContext, align 8
  %87 = load ptr, ptr %14, align 8
  store ptr %87, ptr @error_context_stack, align 8
  br label %check_sql_expr.exit

check_sql_expr.exit:                              ; preds = %74, %79
  call void @llvm.lifetime.end.p0(i64 24, ptr nonnull %14) #12
  call void @llvm.lifetime.end.p0(i64 16, ptr nonnull %13) #12
  br label %88

88:                                               ; preds = %check_sql_expr.exit, %62
  call void @llvm.lifetime.end.p0(i64 24, ptr nonnull %15) #12
  ret ptr %64
}